; Function Attrs: mustprogress nofree norecurse nosync nounwind willreturn memory(read, inaccessiblemem: none) uwtable
define hidden noundef i32 @_ZN28java_lang_Thread_FieldHolder17get_thread_statusEP7oopDesc(ptr noundef %0) local_unnamed_addr #8 align 2 {
  %2 = load i32, ptr @_ZN28java_lang_Thread_FieldHolder21_thread_status_offsetE, align 4
  %3 = ptrtoint ptr %0 to i64
  %4 = sext i32 %2 to i64
  %5 = add nsw i64 %4, %3
  %6 = inttoptr i64 %5 to ptr
  %7 = load i32, ptr %6, align 4
  ret i32 %7
}